; Function Attrs: nounwind uwtable
define ptr @Extra_bddAndAbstractTime(ptr noundef initializes((448, 452)) %0, ptr noundef %1, ptr noundef %2, ptr noundef %3, i32 noundef %4) local_unnamed_addr #0 {
  %6 = getelementptr inbounds nuw i8, ptr %0, i64 448
  br label %7

7:                                                ; preds = %7, %5
  store i32 0, ptr %6, align 8, !tbaa !3
  %8 = tail call fastcc ptr @cuddBddAndAbstractRecurTime(ptr noundef %0, ptr noundef %1, ptr noundef %2, ptr noundef %3, i32 noundef %4)
  %9 = load i32, ptr %6, align 8, !tbaa !3
  %10 = icmp eq i32 %9, 1
  br i1 %10, label %7, label %11, !llvm.loop !35

11:                                               ; preds = %7
  ret ptr %8
}